target datalayout = "e-m:e-p270:32:32-p271:32:32-p272:64:64-i64:64-i128:128-f80:128-n8:16:32:64-S128"
target triple = "x86_64-pc-linux-gnu"

%class.ext_numeral = type { i32, %class.rational }
%class.rational = type { %class.mpq }
%class.mpq = type { %class.mpz, %class.mpz }
%class.mpz = type { i32, i8, ptr }
%class.old_interval = type { ptr, %class.ext_numeral, %class.ext_numeral, i8, i8, ptr, ptr }
%class.scoped_dependency_manager = type { [8 x i8], %"class.scoped_dependency_manager<void *>::config::allocator", %class.dependency_manager }
%"class.scoped_dependency_manager<void *>::config::allocator" = type { %class.region }
%class.region = type { ptr, ptr, ptr, ptr, ptr }
%class.dependency_manager = type { ptr, ptr, %class.ptr_vector }
%class.ptr_vector = type { %class.vector }
%class.vector = type { ptr }
%"struct.dependency_manager<scoped_dependency_manager<void *>::config>::join" = type { %"class.dependency_manager<scoped_dependency_manager<void *>::config>::dependency", [2 x ptr] }
%"class.dependency_manager<scoped_dependency_manager<void *>::config>::dependency" = type { i32 }

; Function Attrs: mustprogress nounwind uwtable
define linkonce_odr hidden void @_ZN18dependency_managerIN25scoped_dependency_managerIPvE6configEE10dependencyC2Eb(ptr noundef nonnull align 4 dereferenceable(4) %0, i1 noundef zeroext %1) unnamed_addr #5 comdat align 2 {
  %3 = alloca ptr, align 8
  %4 = alloca i8, align 1
  store ptr %0, ptr %3, align 8, !tbaa !41
  %5 = zext i1 %1 to i8
  store i8 %5, ptr %4, align 1, !tbaa !38
  %6 = load ptr, ptr %3, align 8
  %7 = load i32, ptr %6, align 4
  %8 = and i32 %7, -1073741824
  %9 = or i32 %8, 0
  store i32 %9, ptr %6, align 4
  %10 = load i32, ptr %6, align 4
  %11 = and i32 %10, -1073741825
  %12 = or i32 %11, 0
  store i32 %12, ptr %6, align 4
  %13 = load i8, ptr %4, align 1, !tbaa !38, !range !39, !noundef !40
  %14 = trunc i8 %13 to i1
  %15 = zext i1 %14 to i32
  %16 = load i32, ptr %6, align 4
  %17 = and i32 %15, 1
  %18 = shl i32 %17, 31
  %19 = and i32 %16, 2147483647
  %20 = or i32 %19, %18
  store i32 %20, ptr %6, align 4
  ret void
}

; Function Attrs: mustprogress uwtable
define linkonce_odr hidden void @_ZN18dependency_managerIN25scoped_dependency_managerIPvE6configEE4joinC2EPNS4_10dependencyES7_(ptr noundef nonnull align 8 dereferenceable(24) %0, ptr noundef %1, ptr noundef %2) unnamed_addr #4 comdat align 2 {
  %4 = alloca ptr, align 8
  %5 = alloca ptr, align 8
  %6 = alloca ptr, align 8
  store ptr %0, ptr %4, align 8, !tbaa !95
  store ptr %1, ptr %5, align 8, !tbaa !41
  store ptr %2, ptr %6, align 8, !tbaa !41
  %7 = load ptr, ptr %4, align 8
  call void @_ZN18dependency_managerIN25scoped_dependency_managerIPvE6configEE10dependencyC2Eb(ptr noundef nonnull align 4 dereferenceable(4) %7, i1 noundef zeroext false)
  %8 = load ptr, ptr %5, align 8, !tbaa !41
  %9 = getelementptr inbounds nuw %"struct.dependency_manager<scoped_dependency_manager<void *>::config>::join", ptr %7, i32 0, i32 1
  %10 = getelementptr inbounds [2 x ptr], ptr %9, i64 0, i64 0
  store ptr %8, ptr %10, align 8, !tbaa !41
  %11 = load ptr, ptr %6, align 8, !tbaa !41
  %12 = getelementptr inbounds nuw %"struct.dependency_manager<scoped_dependency_manager<void *>::config>::join", ptr %7, i32 0, i32 1
  %13 = getelementptr inbounds [2 x ptr], ptr %12, i64 0, i64 1
  store ptr %11, ptr %13, align 8, !tbaa !41
  ret void
}

; Function Attrs: mustprogress nounwind uwtable
define linkonce_odr hidden void @_ZN18dependency_managerIN25scoped_dependency_managerIPvE6configEE7inc_refEPNS4_10dependencyE(ptr noundef nonnull align 8 dereferenceable(24) %0, ptr noundef %1) #5 comdat align 2 {
  %3 = alloca ptr, align 8
  %4 = alloca ptr, align 8
  store ptr %0, ptr %3, align 8, !tbaa !86
  store ptr %1, ptr %4, align 8, !tbaa !41
  %5 = load ptr, ptr %4, align 8, !tbaa !41
  %6 = icmp ne ptr %5, null
  br i1 %6, label %7, label %16

7:                                                ; preds = %2
  %8 = load ptr, ptr %4, align 8, !tbaa !41
  %9 = load i32, ptr %8, align 4
  %10 = and i32 %9, 1073741823
  %11 = add i32 %10, 1
  %12 = load i32, ptr %8, align 4
  %13 = and i32 %11, 1073741823
  %14 = and i32 %12, -1073741824
  %15 = or i32 %14, %13
  store i32 %15, ptr %8, align 4
  br label %16

16:                                               ; preds = %7, %2
  ret void
}

; Function Attrs: mustprogress uwtable
define linkonce_odr hidden noundef ptr @_ZN25scoped_dependency_managerIPvE6config9allocator8allocateEm(ptr noundef nonnull align 8 dereferenceable(40) %0, i64 noundef %1) #4 comdat align 2 {
  %3 = alloca ptr, align 8
  %4 = alloca i64, align 8
  store ptr %0, ptr %3, align 8, !tbaa !94
  store i64 %1, ptr %4, align 8, !tbaa !81
  %5 = load ptr, ptr %3, align 8
  %6 = getelementptr inbounds nuw %"class.scoped_dependency_manager<void *>::config::allocator", ptr %5, i32 0, i32 0
  %7 = load i64, ptr %4, align 8, !tbaa !81
  %8 = call noundef ptr @_ZN6region8allocateEm(ptr noundef nonnull align 8 dereferenceable(40) %6, i64 noundef %7)
  ret ptr %8
}

; Function Attrs: mustprogress uwtable
define linkonce_odr hidden noundef ptr @_ZN18dependency_managerIN25scoped_dependency_managerIPvE6configEE7mk_joinEPNS4_10dependencyES6_(ptr noundef nonnull align 8 dereferenceable(24) %0, ptr noundef %1, ptr noundef %2) #4 comdat align 2 {
  %4 = alloca ptr, align 8
  %5 = alloca ptr, align 8
  %6 = alloca ptr, align 8
  %7 = alloca ptr, align 8
  %8 = alloca ptr, align 8
  store ptr %0, ptr %5, align 8, !tbaa !86
  store ptr %1, ptr %6, align 8, !tbaa !41
  store ptr %2, ptr %7, align 8, !tbaa !41
  %9 = load ptr, ptr %5, align 8
  %10 = load ptr, ptr %6, align 8, !tbaa !41
  %11 = icmp eq ptr %10, null
  br i1 %11, label %12, label %14

12:                                               ; preds = %3
  %13 = load ptr, ptr %7, align 8, !tbaa !41
  store ptr %13, ptr %4, align 8
  br label %34

14:                                               ; preds = %3
  %15 = load ptr, ptr %7, align 8, !tbaa !41
  %16 = icmp eq ptr %15, null
  br i1 %16, label %17, label %19

17:                                               ; preds = %14
  %18 = load ptr, ptr %6, align 8, !tbaa !41
  store ptr %18, ptr %4, align 8
  br label %34

19:                                               ; preds = %14
  %20 = load ptr, ptr %6, align 8, !tbaa !41
  %21 = load ptr, ptr %7, align 8, !tbaa !41
  %22 = icmp eq ptr %20, %21
  br i1 %22, label %23, label %25

23:                                               ; preds = %19
  %24 = load ptr, ptr %6, align 8, !tbaa !41
  store ptr %24, ptr %4, align 8
  br label %34

25:                                               ; preds = %19
  call void @llvm.lifetime.start.p0(i64 8, ptr %8) #3
  %26 = getelementptr inbounds nuw %class.dependency_manager, ptr %9, i32 0, i32 1
  %27 = load ptr, ptr %26, align 8, !tbaa !88
  %28 = call noundef ptr @_ZN25scoped_dependency_managerIPvE6config9allocator8allocateEm(ptr noundef nonnull align 8 dereferenceable(40) %27, i64 noundef 24)
  store ptr %28, ptr %8, align 8, !tbaa !55
  %29 = load ptr, ptr %6, align 8, !tbaa !41
  call void @_ZN18dependency_managerIN25scoped_dependency_managerIPvE6configEE7inc_refEPNS4_10dependencyE(ptr noundef nonnull align 8 dereferenceable(24) %9, ptr noundef %29)
  %30 = load ptr, ptr %7, align 8, !tbaa !41
  call void @_ZN18dependency_managerIN25scoped_dependency_managerIPvE6configEE7inc_refEPNS4_10dependencyE(ptr noundef nonnull align 8 dereferenceable(24) %9, ptr noundef %30)
  %31 = load ptr, ptr %8, align 8, !tbaa !55
  %32 = load ptr, ptr %6, align 8, !tbaa !41
  %33 = load ptr, ptr %7, align 8, !tbaa !41
  call void @_ZN18dependency_managerIN25scoped_dependency_managerIPvE6configEE4joinC2EPNS4_10dependencyES7_(ptr noundef nonnull align 8 dereferenceable(24) %31, ptr noundef %32, ptr noundef %33)
  store ptr %31, ptr %4, align 8
  call void @llvm.lifetime.end.p0(i64 8, ptr %8) #3
  br label %34

34:                                               ; preds = %25, %23, %17, %12
  %35 = load ptr, ptr %4, align 8
  ret ptr %35
}

; Function Attrs: mustprogress uwtable
define linkonce_odr hidden noundef ptr @_ZN25scoped_dependency_managerIPvE7mk_joinEPN18dependency_managerINS1_6configEE10dependencyES6_(ptr noundef nonnull align 8 dereferenceable(72) %0, ptr noundef %1, ptr noundef %2) #4 comdat align 2 {
  %4 = alloca ptr, align 8
  %5 = alloca ptr, align 8
  %6 = alloca ptr, align 8
  store ptr %0, ptr %4, align 8, !tbaa !29
  store ptr %1, ptr %5, align 8, !tbaa !41
  store ptr %2, ptr %6, align 8, !tbaa !41
  %7 = load ptr, ptr %4, align 8
  %8 = getelementptr inbounds nuw %class.scoped_dependency_manager, ptr %7, i32 0, i32 2
  %9 = load ptr, ptr %5, align 8, !tbaa !41
  %10 = load ptr, ptr %6, align 8, !tbaa !41
  %11 = call noundef ptr @_ZN18dependency_managerIN25scoped_dependency_managerIPvE6configEE7mk_joinEPNS4_10dependencyES6_(ptr noundef nonnull align 8 dereferenceable(24) %8, ptr noundef %9, ptr noundef %10)
  ret ptr %11
}

; Function Attrs: mustprogress uwtable
define linkonce_odr hidden noundef ptr @_ZN12old_interval4joinEPN18dependency_managerIN25scoped_dependency_managerIPvE6configEE10dependencyES7_(ptr noundef nonnull align 8 dereferenceable(112) %0, ptr noundef %1, ptr noundef %2) #4 comdat align 2 {
  %4 = alloca ptr, align 8
  %5 = alloca ptr, align 8
  %6 = alloca ptr, align 8
  store ptr %0, ptr %4, align 8, !tbaa !27
  store ptr %1, ptr %5, align 8, !tbaa !41
  store ptr %2, ptr %6, align 8, !tbaa !41
  %7 = load ptr, ptr %4, align 8
  %8 = getelementptr inbounds nuw %class.old_interval, ptr %7, i32 0, i32 0
  %9 = load ptr, ptr %8, align 8, !tbaa !42
  %10 = load ptr, ptr %5, align 8, !tbaa !41
  %11 = load ptr, ptr %6, align 8, !tbaa !41
  %12 = call noundef ptr @_ZN25scoped_dependency_managerIPvE7mk_joinEPN18dependency_managerINS1_6configEE10dependencyES6_(ptr noundef nonnull align 8 dereferenceable(72) %9, ptr noundef %10, ptr noundef %11)
  ret ptr %12
}

; Function Attrs: mustprogress uwtable
define hidden noundef ptr @_ZN12old_interval8join_optEPN18dependency_managerIN25scoped_dependency_managerIPvE6configEE10dependencyES7_S7_S7_(ptr noundef nonnull align 8 dereferenceable(112) %0, ptr noundef %1, ptr noundef %2, ptr noundef %3, ptr noundef %4) #4 align 2 {
  %6 = alloca ptr, align 8
  %7 = alloca ptr, align 8
  %8 = alloca ptr, align 8
  %9 = alloca ptr, align 8
  %10 = alloca ptr, align 8
  %11 = alloca ptr, align 8
  store ptr %0, ptr %7, align 8, !tbaa !27
  store ptr %1, ptr %8, align 8, !tbaa !41
  store ptr %2, ptr %9, align 8, !tbaa !41
  store ptr %3, ptr %10, align 8, !tbaa !41
  store ptr %4, ptr %11, align 8, !tbaa !41
  %12 = load ptr, ptr %7, align 8
  %13 = load ptr, ptr %10, align 8, !tbaa !41
  %14 = load ptr, ptr %8, align 8, !tbaa !41
  %15 = icmp eq ptr %13, %14
  br i1 %15, label %20, label %16

16:                                               ; preds = %5
  %17 = load ptr, ptr %10, align 8, !tbaa !41
  %18 = load ptr, ptr %9, align 8, !tbaa !41
  %19 = icmp eq ptr %17, %18
  br i1 %19, label %20, label %24

20:                                               ; preds = %16, %5
  %21 = load ptr, ptr %8, align 8, !tbaa !41
  %22 = load ptr, ptr %9, align 8, !tbaa !41
  %23 = call noundef ptr @_ZN12old_interval4joinEPN18dependency_managerIN25scoped_dependency_managerIPvE6configEE10dependencyES7_(ptr noundef nonnull align 8 dereferenceable(112) %12, ptr noundef %21, ptr noundef %22)
  store ptr %23, ptr %6, align 8
  br label %51

24:                                               ; preds = %16
  %25 = load ptr, ptr %11, align 8, !tbaa !41
  %26 = load ptr, ptr %8, align 8, !tbaa !41
  %27 = icmp eq ptr %25, %26
  br i1 %27, label %32, label %28

28:                                               ; preds = %24
  %29 = load ptr, ptr %11, align 8, !tbaa !41
  %30 = load ptr, ptr %9, align 8, !tbaa !41
  %31 = icmp eq ptr %29, %30
  br i1 %31, label %32, label %36

32:                                               ; preds = %28, %24
  %33 = load ptr, ptr %8, align 8, !tbaa !41
  %34 = load ptr, ptr %9, align 8, !tbaa !41
  %35 = call noundef ptr @_ZN12old_interval4joinEPN18dependency_managerIN25scoped_dependency_managerIPvE6configEE10dependencyES7_(ptr noundef nonnull align 8 dereferenceable(112) %12, ptr noundef %33, ptr noundef %34)
  store ptr %35, ptr %6, align 8
  br label %51

36:                                               ; preds = %28
  %37 = load ptr, ptr %10, align 8, !tbaa !41
  %38 = icmp eq ptr %37, null
  br i1 %38, label %42, label %39

39:                                               ; preds = %36
  %40 = load ptr, ptr %11, align 8, !tbaa !41
  %41 = icmp eq ptr %40, null
  br i1 %41, label %42, label %46

42:                                               ; preds = %39, %36
  %43 = load ptr, ptr %8, align 8, !tbaa !41
  %44 = load ptr, ptr %9, align 8, !tbaa !41
  %45 = call noundef ptr @_ZN12old_interval4joinEPN18dependency_managerIN25scoped_dependency_managerIPvE6configEE10dependencyES7_(ptr noundef nonnull align 8 dereferenceable(112) %12, ptr noundef %43, ptr noundef %44)
  store ptr %45, ptr %6, align 8
  br label %51

46:                                               ; preds = %39
  %47 = load ptr, ptr %8, align 8, !tbaa !41
  %48 = load ptr, ptr %9, align 8, !tbaa !41
  %49 = load ptr, ptr %10, align 8, !tbaa !41
  %50 = call noundef ptr @_ZN12old_interval4joinEPN18dependency_managerIN25scoped_dependency_managerIPvE6configEE10dependencyES7_S7_(ptr noundef nonnull align 8 dereferenceable(112) %12, ptr noundef %47, ptr noundef %48, ptr noundef %49)
  store ptr %50, ptr %6, align 8
  br label %51

51:                                               ; preds = %46, %42, %32, %20
  %52 = load ptr, ptr %6, align 8
  ret ptr %52
}