; Function Attrs: mustprogress uwtable
define hidden noundef ptr @_ZN12old_interval8join_optEPN18dependency_managerIN25scoped_dependency_managerIPvE6configEE10dependencyES7_S7_S7_(ptr noundef nonnull align 8 dereferenceable(112) %0, ptr noundef %1, ptr noundef %2, ptr noundef %3, ptr noundef readnone captures(address) %4) local_unnamed_addr #3 align 2 {
  %6 = icmp eq ptr %3, %1
  %7 = icmp eq ptr %3, %2
  %or.cond26 = or i1 %6, %7
  br i1 %or.cond26, label %8, label %29

8:                                                ; preds = %5
  %9 = load ptr, ptr %0, align 8, !tbaa !41
  %10 = icmp eq ptr %1, null
  br i1 %10, label %_ZN12old_interval4joinEPN18dependency_managerIN25scoped_dependency_managerIPvE6configEE10dependencyES7_.exit, label %11

11:                                               ; preds = %8
  %12 = icmp eq ptr %2, null
  %13 = icmp eq ptr %1, %2
  %or.cond.i.i.i = or i1 %12, %13
  br i1 %or.cond.i.i.i, label %_ZN12old_interval4joinEPN18dependency_managerIN25scoped_dependency_managerIPvE6configEE10dependencyES7_.exit, label %_ZN18dependency_managerIN25scoped_dependency_managerIPvE6configEE7inc_refEPNS4_10dependencyE.exit17.i.i.i

_ZN18dependency_managerIN25scoped_dependency_managerIPvE6configEE7inc_refEPNS4_10dependencyE.exit17.i.i.i: ; preds = %11
  %14 = getelementptr inbounds nuw i8, ptr %9, i64 56
  %15 = load ptr, ptr %14, align 8, !tbaa !42
  %16 = tail call noundef ptr @_ZN6region8allocateEm(ptr noundef nonnull align 8 dereferenceable(40) %15, i64 noundef 24)
  %17 = load i32, ptr %1, align 4
  %18 = add i32 %17, 1
  %19 = and i32 %18, 1073741823
  %20 = and i32 %17, -1073741824
  %21 = or disjoint i32 %19, %20
  store i32 %21, ptr %1, align 4
  %22 = load i32, ptr %2, align 4
  %23 = add i32 %22, 1
  %24 = and i32 %23, 1073741823
  %25 = and i32 %22, -1073741824
  %26 = or disjoint i32 %24, %25
  store i32 %26, ptr %2, align 4
  store i32 0, ptr %16, align 4
  %27 = getelementptr inbounds nuw i8, ptr %16, i64 8
  store ptr %1, ptr %27, align 8, !tbaa !50
  %28 = getelementptr inbounds nuw i8, ptr %16, i64 16
  store ptr %2, ptr %28, align 8, !tbaa !50
  br label %_ZN12old_interval4joinEPN18dependency_managerIN25scoped_dependency_managerIPvE6configEE10dependencyES7_.exit

29:                                               ; preds = %5
  %30 = icmp eq ptr %4, %1
  %31 = icmp eq ptr %4, %2
  %or.cond27 = or i1 %30, %31
  br i1 %or.cond27, label %32, label %53

32:                                               ; preds = %29
  %33 = load ptr, ptr %0, align 8, !tbaa !41
  %34 = icmp eq ptr %1, null
  br i1 %34, label %_ZN12old_interval4joinEPN18dependency_managerIN25scoped_dependency_managerIPvE6configEE10dependencyES7_.exit, label %35

35:                                               ; preds = %32
  %36 = icmp eq ptr %2, null
  %37 = icmp eq ptr %1, %2
  %or.cond.i.i.i28 = or i1 %36, %37
  br i1 %or.cond.i.i.i28, label %_ZN12old_interval4joinEPN18dependency_managerIN25scoped_dependency_managerIPvE6configEE10dependencyES7_.exit, label %_ZN18dependency_managerIN25scoped_dependency_managerIPvE6configEE7inc_refEPNS4_10dependencyE.exit17.i.i.i29

_ZN18dependency_managerIN25scoped_dependency_managerIPvE6configEE7inc_refEPNS4_10dependencyE.exit17.i.i.i29: ; preds = %35
  %38 = getelementptr inbounds nuw i8, ptr %33, i64 56
  %39 = load ptr, ptr %38, align 8, !tbaa !42
  %40 = tail call noundef ptr @_ZN6region8allocateEm(ptr noundef nonnull align 8 dereferenceable(40) %39, i64 noundef 24)
  %41 = load i32, ptr %1, align 4
  %42 = add i32 %41, 1
  %43 = and i32 %42, 1073741823
  %44 = and i32 %41, -1073741824
  %45 = or disjoint i32 %43, %44
  store i32 %45, ptr %1, align 4
  %46 = load i32, ptr %2, align 4
  %47 = add i32 %46, 1
  %48 = and i32 %47, 1073741823
  %49 = and i32 %46, -1073741824
  %50 = or disjoint i32 %48, %49
  store i32 %50, ptr %2, align 4
  store i32 0, ptr %40, align 4
  %51 = getelementptr inbounds nuw i8, ptr %40, i64 8
  store ptr %1, ptr %51, align 8, !tbaa !50
  %52 = getelementptr inbounds nuw i8, ptr %40, i64 16
  store ptr %2, ptr %52, align 8, !tbaa !50
  br label %_ZN12old_interval4joinEPN18dependency_managerIN25scoped_dependency_managerIPvE6configEE10dependencyES7_.exit

53:                                               ; preds = %29
  %54 = icmp eq ptr %3, null
  %55 = icmp eq ptr %4, null
  %or.cond = or i1 %54, %55
  br i1 %or.cond, label %56, label %77

56:                                               ; preds = %53
  %57 = load ptr, ptr %0, align 8, !tbaa !41
  %58 = icmp eq ptr %1, null
  br i1 %58, label %_ZN12old_interval4joinEPN18dependency_managerIN25scoped_dependency_managerIPvE6configEE10dependencyES7_.exit, label %59

59:                                               ; preds = %56
  %60 = icmp eq ptr %2, null
  %61 = icmp eq ptr %1, %2
  %or.cond.i.i.i32 = or i1 %60, %61
  br i1 %or.cond.i.i.i32, label %_ZN12old_interval4joinEPN18dependency_managerIN25scoped_dependency_managerIPvE6configEE10dependencyES7_.exit, label %_ZN18dependency_managerIN25scoped_dependency_managerIPvE6configEE7inc_refEPNS4_10dependencyE.exit17.i.i.i33

_ZN18dependency_managerIN25scoped_dependency_managerIPvE6configEE7inc_refEPNS4_10dependencyE.exit17.i.i.i33: ; preds = %59
  %62 = getelementptr inbounds nuw i8, ptr %57, i64 56
  %63 = load ptr, ptr %62, align 8, !tbaa !42
  %64 = tail call noundef ptr @_ZN6region8allocateEm(ptr noundef nonnull align 8 dereferenceable(40) %63, i64 noundef 24)
  %65 = load i32, ptr %1, align 4
  %66 = add i32 %65, 1
  %67 = and i32 %66, 1073741823
  %68 = and i32 %65, -1073741824
  %69 = or disjoint i32 %67, %68
  store i32 %69, ptr %1, align 4
  %70 = load i32, ptr %2, align 4
  %71 = add i32 %70, 1
  %72 = and i32 %71, 1073741823
  %73 = and i32 %70, -1073741824
  %74 = or disjoint i32 %72, %73
  store i32 %74, ptr %2, align 4
  store i32 0, ptr %64, align 4
  %75 = getelementptr inbounds nuw i8, ptr %64, i64 8
  store ptr %1, ptr %75, align 8, !tbaa !50
  %76 = getelementptr inbounds nuw i8, ptr %64, i64 16
  store ptr %2, ptr %76, align 8, !tbaa !50
  br label %_ZN12old_interval4joinEPN18dependency_managerIN25scoped_dependency_managerIPvE6configEE10dependencyES7_.exit

77:                                               ; preds = %53
  %78 = tail call noundef ptr @_ZN12old_interval4joinEPN18dependency_managerIN25scoped_dependency_managerIPvE6configEE10dependencyES7_S7_(ptr noundef nonnull align 8 dereferenceable(112) %0, ptr noundef %1, ptr noundef %2, ptr noundef nonnull %3)
  br label %_ZN12old_interval4joinEPN18dependency_managerIN25scoped_dependency_managerIPvE6configEE10dependencyES7_.exit

_ZN12old_interval4joinEPN18dependency_managerIN25scoped_dependency_managerIPvE6configEE10dependencyES7_.exit: ; preds = %_ZN18dependency_managerIN25scoped_dependency_managerIPvE6configEE7inc_refEPNS4_10dependencyE.exit17.i.i.i33, %59, %56, %_ZN18dependency_managerIN25scoped_dependency_managerIPvE6configEE7inc_refEPNS4_10dependencyE.exit17.i.i.i29, %35, %32, %_ZN18dependency_managerIN25scoped_dependency_managerIPvE6configEE7inc_refEPNS4_10dependencyE.exit17.i.i.i, %11, %8, %77
  %.0 = phi ptr [ %78, %77 ], [ %16, %_ZN18dependency_managerIN25scoped_dependency_managerIPvE6configEE7inc_refEPNS4_10dependencyE.exit17.i.i.i ], [ %2, %8 ], [ %1, %11 ], [ %40, %_ZN18dependency_managerIN25scoped_dependency_managerIPvE6configEE7inc_refEPNS4_10dependencyE.exit17.i.i.i29 ], [ %2, %32 ], [ %1, %35 ], [ %64, %_ZN18dependency_managerIN25scoped_dependency_managerIPvE6configEE7inc_refEPNS4_10dependencyE.exit17.i.i.i33 ], [ %2, %56 ], [ %1, %59 ]
  ret ptr %.0
}